; Function Attrs: mustprogress uwtable
define void @_ZN32pxrInternal_v0_24__pxrReserved__24UsdUtilsAuthorCollectionERKNS_7TfTokenERKNS_7UsdPrimERKSt6vectorINS_7SdfPathESaIS7_EESB_(ptr dead_on_unwind noalias writable sret(%"class.pxrInternal_v0_24__pxrReserved__::UsdCollectionAPI") align 8 %0, ptr noundef nonnull align 8 dereferenceable(8) %1, ptr noundef nonnull align 8 dereferenceable(32) %2, ptr noundef nonnull align 8 dereferenceable(24) %3, ptr noundef nonnull align 8 dereferenceable(24) %4) local_unnamed_addr #0 personality ptr @__gxx_personality_v0 {
  %6 = alloca %"class.pxrInternal_v0_24__pxrReserved__::UsdRelationship", align 8
  %7 = alloca %"class.pxrInternal_v0_24__pxrReserved__::UsdRelationship", align 8
  tail call void @_ZN32pxrInternal_v0_24__pxrReserved__16UsdCollectionAPI5ApplyERKNS_7UsdPrimERKNS_7TfTokenE(ptr dead_on_unwind writable sret(%"class.pxrInternal_v0_24__pxrReserved__::UsdCollectionAPI") align 8 %0, ptr noundef nonnull align 8 dereferenceable(32) %2, ptr noundef nonnull align 8 dereferenceable(8) %1)
  invoke void @_ZNK32pxrInternal_v0_24__pxrReserved__16UsdCollectionAPI17CreateIncludesRelEv(ptr dead_on_unwind nonnull writable sret(%"class.pxrInternal_v0_24__pxrReserved__::UsdRelationship") align 8 %6, ptr noundef nonnull align 8 dereferenceable(32) %0)
          to label %8 unwind label %52

8:                                                ; preds = %5
  %9 = invoke noundef zeroext i1 @_ZNK32pxrInternal_v0_24__pxrReserved__15UsdRelationship10SetTargetsERKSt6vectorINS_7SdfPathESaIS2_EE(ptr noundef nonnull align 8 dereferenceable(32) %6, ptr noundef nonnull align 8 dereferenceable(24) %3)
          to label %10 unwind label %54

10:                                               ; preds = %8
  %11 = load ptr, ptr %4, align 8
  %12 = getelementptr inbounds nuw i8, ptr %4, i64 8
  %13 = load ptr, ptr %12, align 8
  %14 = icmp eq ptr %11, %13
  br i1 %14, label %_ZN32pxrInternal_v0_24__pxrReserved__15UsdRelationshipD2Ev.exit, label %15

15:                                               ; preds = %10
  invoke void @_ZNK32pxrInternal_v0_24__pxrReserved__16UsdCollectionAPI17CreateExcludesRelEv(ptr dead_on_unwind nonnull writable sret(%"class.pxrInternal_v0_24__pxrReserved__::UsdRelationship") align 8 %7, ptr noundef nonnull align 8 dereferenceable(32) %0)
          to label %16 unwind label %54

16:                                               ; preds = %15
  %17 = invoke noundef zeroext i1 @_ZNK32pxrInternal_v0_24__pxrReserved__15UsdRelationship10SetTargetsERKSt6vectorINS_7SdfPathESaIS2_EE(ptr noundef nonnull align 8 dereferenceable(32) %7, ptr noundef nonnull align 8 dereferenceable(24) %4)
          to label %18 unwind label %56

18:                                               ; preds = %16
  %19 = getelementptr inbounds nuw i8, ptr %7, i64 24
  %20 = load ptr, ptr %19, align 8
  %21 = ptrtoint ptr %20 to i64
  %22 = and i64 %21, 7
  %.not.i.i.i.i.i = icmp eq i64 %22, 0
  br i1 %.not.i.i.i.i.i, label %_ZN32pxrInternal_v0_24__pxrReserved__7TfTokenD2Ev.exit.i.i.i, label %23

23:                                               ; preds = %18
  %24 = and i64 %21, -8
  %25 = inttoptr i64 %24 to ptr
  %26 = atomicrmw sub ptr %25, i32 2 release, align 4
  br label %_ZN32pxrInternal_v0_24__pxrReserved__7TfTokenD2Ev.exit.i.i.i

_ZN32pxrInternal_v0_24__pxrReserved__7TfTokenD2Ev.exit.i.i.i: ; preds = %23, %18
  %27 = getelementptr inbounds nuw i8, ptr %7, i64 16
  %28 = load i32, ptr %27, align 8
  %.not.i.i1.i.i.i = icmp eq i32 %28, 0
  br i1 %.not.i.i1.i.i.i, label %_ZN32pxrInternal_v0_24__pxrReserved__7SdfPathD2Ev.exit.i.i.i, label %29

29:                                               ; preds = %_ZN32pxrInternal_v0_24__pxrReserved__7TfTokenD2Ev.exit.i.i.i
  %30 = and i32 %28, 255
  %31 = lshr i32 %28, 8
  %32 = zext nneg i32 %30 to i64
  %33 = getelementptr inbounds [257 x ptr], ptr @_ZN32pxrInternal_v0_24__pxrReserved__8Sdf_PoolINS_15Sdf_PathPrimTagELj24ELj8ELj16384EE13_regionStartsE, i64 0, i64 %32
  %34 = load ptr, ptr %33, align 8
  %35 = mul nuw nsw i32 %31, 24
  %36 = zext nneg i32 %35 to i64
  %37 = getelementptr inbounds i8, ptr %34, i64 %36
  %38 = getelementptr inbounds nuw i8, ptr %37, i64 8
  %39 = atomicrmw sub ptr %38, i32 1 seq_cst, align 4
  %40 = and i32 %39, 2147483647
  %41 = icmp eq i32 %40, 1
  br i1 %41, label %42, label %_ZN32pxrInternal_v0_24__pxrReserved__7SdfPathD2Ev.exit.i.i.i

42:                                               ; preds = %29
  invoke void @_ZNK32pxrInternal_v0_24__pxrReserved__12Sdf_PathNode8_DestroyEv(ptr noundef nonnull align 8 dereferenceable(16) %37)
          to label %_ZN32pxrInternal_v0_24__pxrReserved__7SdfPathD2Ev.exit.i.i.i unwind label %43

43:                                               ; preds = %42
  %44 = landingpad { ptr, i32 }
          catch ptr null
  %45 = extractvalue { ptr, i32 } %44, 0
  call void @__clang_call_terminate(ptr %45) #20
  unreachable

_ZN32pxrInternal_v0_24__pxrReserved__7SdfPathD2Ev.exit.i.i.i: ; preds = %42, %29, %_ZN32pxrInternal_v0_24__pxrReserved__7TfTokenD2Ev.exit.i.i.i
  %46 = getelementptr inbounds nuw i8, ptr %7, i64 8
  %47 = load ptr, ptr %46, align 8
  %.not.i.i.i.i.i.i = icmp eq ptr %47, null
  br i1 %.not.i.i.i.i.i.i, label %_ZN32pxrInternal_v0_24__pxrReserved__15UsdRelationshipD2Ev.exit, label %48

48:                                               ; preds = %_ZN32pxrInternal_v0_24__pxrReserved__7SdfPathD2Ev.exit.i.i.i
  %49 = getelementptr inbounds nuw i8, ptr %47, i64 48
  %50 = atomicrmw sub ptr %49, i64 1 release, align 8
  %.not1.i.i.i.i.i.i = icmp eq i64 %50, 1
  br i1 %.not1.i.i.i.i.i.i, label %51, label %_ZN32pxrInternal_v0_24__pxrReserved__15UsdRelationshipD2Ev.exit

51:                                               ; preds = %48
  call void @_ZN32pxrInternal_v0_24__pxrReserved__12Usd_PrimDataD1Ev(ptr noundef nonnull align 8 dereferenceable(64) %47) #19
  call void @_ZdlPvm(ptr noundef nonnull %47, i64 noundef 64) #22
  br label %_ZN32pxrInternal_v0_24__pxrReserved__15UsdRelationshipD2Ev.exit

52:                                               ; preds = %5
  %53 = landingpad { ptr, i32 }
          cleanup
  br label %92

54:                                               ; preds = %15, %8
  %55 = landingpad { ptr, i32 }
          cleanup
  br label %91

56:                                               ; preds = %16
  %57 = landingpad { ptr, i32 }
          cleanup
  call void @_ZN32pxrInternal_v0_24__pxrReserved__15UsdRelationshipD2Ev(ptr noundef nonnull align 8 dereferenceable(32) %7) #19
  br label %91

_ZN32pxrInternal_v0_24__pxrReserved__15UsdRelationshipD2Ev.exit: ; preds = %51, %48, %_ZN32pxrInternal_v0_24__pxrReserved__7SdfPathD2Ev.exit.i.i.i, %10
  %58 = getelementptr inbounds nuw i8, ptr %6, i64 24
  %59 = load ptr, ptr %58, align 8
  %60 = ptrtoint ptr %59 to i64
  %61 = and i64 %60, 7
  %.not.i.i.i.i.i11 = icmp eq i64 %61, 0
  br i1 %.not.i.i.i.i.i11, label %_ZN32pxrInternal_v0_24__pxrReserved__7TfTokenD2Ev.exit.i.i.i12, label %62

62:                                               ; preds = %_ZN32pxrInternal_v0_24__pxrReserved__15UsdRelationshipD2Ev.exit
  %63 = and i64 %60, -8
  %64 = inttoptr i64 %63 to ptr
  %65 = atomicrmw sub ptr %64, i32 2 release, align 4
  br label %_ZN32pxrInternal_v0_24__pxrReserved__7TfTokenD2Ev.exit.i.i.i12

_ZN32pxrInternal_v0_24__pxrReserved__7TfTokenD2Ev.exit.i.i.i12: ; preds = %62, %_ZN32pxrInternal_v0_24__pxrReserved__15UsdRelationshipD2Ev.exit
  %66 = getelementptr inbounds nuw i8, ptr %6, i64 16
  %67 = load i32, ptr %66, align 8
  %.not.i.i1.i.i.i13 = icmp eq i32 %67, 0
  br i1 %.not.i.i1.i.i.i13, label %_ZN32pxrInternal_v0_24__pxrReserved__7SdfPathD2Ev.exit.i.i.i14, label %68

68:                                               ; preds = %_ZN32pxrInternal_v0_24__pxrReserved__7TfTokenD2Ev.exit.i.i.i12
  %69 = and i32 %67, 255
  %70 = lshr i32 %67, 8
  %71 = zext nneg i32 %69 to i64
  %72 = getelementptr inbounds [257 x ptr], ptr @_ZN32pxrInternal_v0_24__pxrReserved__8Sdf_PoolINS_15Sdf_PathPrimTagELj24ELj8ELj16384EE13_regionStartsE, i64 0, i64 %71
  %73 = load ptr, ptr %72, align 8
  %74 = mul nuw nsw i32 %70, 24
  %75 = zext nneg i32 %74 to i64
  %76 = getelementptr inbounds i8, ptr %73, i64 %75
  %77 = getelementptr inbounds nuw i8, ptr %76, i64 8
  %78 = atomicrmw sub ptr %77, i32 1 seq_cst, align 4
  %79 = and i32 %78, 2147483647
  %80 = icmp eq i32 %79, 1
  br i1 %80, label %81, label %_ZN32pxrInternal_v0_24__pxrReserved__7SdfPathD2Ev.exit.i.i.i14

81:                                               ; preds = %68
  invoke void @_ZNK32pxrInternal_v0_24__pxrReserved__12Sdf_PathNode8_DestroyEv(ptr noundef nonnull align 8 dereferenceable(16) %76)
          to label %_ZN32pxrInternal_v0_24__pxrReserved__7SdfPathD2Ev.exit.i.i.i14 unwind label %82

82:                                               ; preds = %81
  %83 = landingpad { ptr, i32 }
          catch ptr null
  %84 = extractvalue { ptr, i32 } %83, 0
  call void @__clang_call_terminate(ptr %84) #20
  unreachable

_ZN32pxrInternal_v0_24__pxrReserved__7SdfPathD2Ev.exit.i.i.i14: ; preds = %81, %68, %_ZN32pxrInternal_v0_24__pxrReserved__7TfTokenD2Ev.exit.i.i.i12
  %85 = getelementptr inbounds nuw i8, ptr %6, i64 8
  %86 = load ptr, ptr %85, align 8
  %.not.i.i.i.i.i.i15 = icmp eq ptr %86, null
  br i1 %.not.i.i.i.i.i.i15, label %_ZN32pxrInternal_v0_24__pxrReserved__15UsdRelationshipD2Ev.exit17, label %87

87:                                               ; preds = %_ZN32pxrInternal_v0_24__pxrReserved__7SdfPathD2Ev.exit.i.i.i14
  %88 = getelementptr inbounds nuw i8, ptr %86, i64 48
  %89 = atomicrmw sub ptr %88, i64 1 release, align 8
  %.not1.i.i.i.i.i.i16 = icmp eq i64 %89, 1
  br i1 %.not1.i.i.i.i.i.i16, label %90, label %_ZN32pxrInternal_v0_24__pxrReserved__15UsdRelationshipD2Ev.exit17

90:                                               ; preds = %87
  call void @_ZN32pxrInternal_v0_24__pxrReserved__12Usd_PrimDataD1Ev(ptr noundef nonnull align 8 dereferenceable(64) %86) #19
  call void @_ZdlPvm(ptr noundef nonnull %86, i64 noundef 64) #22
  br label %_ZN32pxrInternal_v0_24__pxrReserved__15UsdRelationshipD2Ev.exit17

_ZN32pxrInternal_v0_24__pxrReserved__15UsdRelationshipD2Ev.exit17: ; preds = %_ZN32pxrInternal_v0_24__pxrReserved__7SdfPathD2Ev.exit.i.i.i14, %87, %90
  ret void

91:                                               ; preds = %56, %54
  %.pn = phi { ptr, i32 } [ %57, %56 ], [ %55, %54 ]
  call void @_ZN32pxrInternal_v0_24__pxrReserved__15UsdRelationshipD2Ev(ptr noundef nonnull align 8 dereferenceable(32) %6) #19
  br label %92

92:                                               ; preds = %91, %52
  %.pn.pn = phi { ptr, i32 } [ %.pn, %91 ], [ %53, %52 ]
  call void @_ZN32pxrInternal_v0_24__pxrReserved__16UsdCollectionAPID1Ev(ptr noundef nonnull align 8 dereferenceable(32) %0) #19
  resume { ptr, i32 } %.pn.pn
}